target datalayout = "e-m:e-p270:32:32-p271:32:32-p272:64:64-i64:64-i128:128-f80:128-n8:16:32:64-S128"
target triple = "x86_64-pc-linux-gnu"

; Function Attrs: nounwind uwtable
define hidden void @av1_dr_prediction_z2_c(ptr noundef %0, i64 noundef %1, i32 noundef %2, i32 noundef %3, ptr noundef %4, ptr noundef %5, i32 noundef %6, i32 noundef %7, i32 noundef %8, i32 noundef %9) #0 {
  %11 = alloca ptr, align 8
  %12 = alloca i64, align 8
  %13 = alloca i32, align 4
  %14 = alloca i32, align 4
  %15 = alloca ptr, align 8
  %16 = alloca ptr, align 8
  %17 = alloca i32, align 4
  %18 = alloca i32, align 4
  %19 = alloca i32, align 4
  %20 = alloca i32, align 4
  %21 = alloca i32, align 4
  %22 = alloca i32, align 4
  %23 = alloca i32, align 4
  %24 = alloca i32, align 4
  %25 = alloca i32, align 4
  %26 = alloca i32, align 4
  %27 = alloca i32, align 4
  %28 = alloca i32, align 4
  %29 = alloca i32, align 4
  %30 = alloca i32, align 4
  %31 = alloca i32, align 4
  %32 = alloca i32, align 4
  %33 = alloca i32, align 4
  store ptr %0, ptr %11, align 8
  store i64 %1, ptr %12, align 8
  store i32 %2, ptr %13, align 4
  store i32 %3, ptr %14, align 4
  store ptr %4, ptr %15, align 8
  store ptr %5, ptr %16, align 8
  store i32 %6, ptr %17, align 4
  store i32 %7, ptr %18, align 4
  store i32 %8, ptr %19, align 4
  store i32 %9, ptr %20, align 4
  %34 = load i32, ptr %17, align 4
  %35 = shl i32 1, %34
  %36 = sub nsw i32 0, %35
  store i32 %36, ptr %21, align 4
  %37 = load i32, ptr %18, align 4
  %38 = shl i32 1, %37
  %39 = sub nsw i32 0, %38
  store i32 %39, ptr %22, align 4
  %40 = load i32, ptr %17, align 4
  %41 = sub nsw i32 6, %40
  store i32 %41, ptr %23, align 4
  %42 = load i32, ptr %18, align 4
  %43 = sub nsw i32 6, %42
  store i32 %43, ptr %24, align 4
  store i32 0, ptr %25, align 4
  br label %44

44:                                               ; preds = %151, %10
  %45 = load i32, ptr %25, align 4
  %46 = load i32, ptr %14, align 4
  %47 = icmp slt i32 %45, %46
  br i1 %47, label %48, label %154

48:                                               ; preds = %44
  store i32 0, ptr %26, align 4
  br label %49

49:                                               ; preds = %144, %48
  %50 = load i32, ptr %26, align 4
  %51 = load i32, ptr %13, align 4
  %52 = icmp slt i32 %50, %51
  br i1 %52, label %53, label %147

53:                                               ; preds = %49
  %54 = load i32, ptr %25, align 4
  %55 = add nsw i32 %54, 1
  store i32 %55, ptr %28, align 4
  %56 = load i32, ptr %26, align 4
  %57 = shl i32 %56, 6
  %58 = load i32, ptr %28, align 4
  %59 = load i32, ptr %19, align 4
  %60 = mul nsw i32 %58, %59
  %61 = sub nsw i32 %57, %60
  store i32 %61, ptr %29, align 4
  %62 = load i32, ptr %29, align 4
  %63 = load i32, ptr %23, align 4
  %64 = ashr i32 %62, %63
  store i32 %64, ptr %30, align 4
  %65 = load i32, ptr %30, align 4
  %66 = load i32, ptr %21, align 4
  %67 = icmp sge i32 %65, %66
  br i1 %67, label %68, label %97

68:                                               ; preds = %53
  %69 = load i32, ptr %29, align 4
  %70 = load i32, ptr %17, align 4
  %71 = shl i32 1, %70
  %72 = mul nsw i32 %69, %71
  %73 = and i32 %72, 63
  %74 = ashr i32 %73, 1
  store i32 %74, ptr %31, align 4
  %75 = load ptr, ptr %15, align 8
  %76 = load i32, ptr %30, align 4
  %77 = sext i32 %76 to i64
  %78 = getelementptr inbounds i8, ptr %75, i64 %77
  %79 = load i8, ptr %78, align 1
  %80 = zext i8 %79 to i32
  %81 = load i32, ptr %31, align 4
  %82 = sub nsw i32 32, %81
  %83 = mul nsw i32 %80, %82
  %84 = load ptr, ptr %15, align 8
  %85 = load i32, ptr %30, align 4
  %86 = add nsw i32 %85, 1
  %87 = sext i32 %86 to i64
  %88 = getelementptr inbounds i8, ptr %84, i64 %87
  %89 = load i8, ptr %88, align 1
  %90 = zext i8 %89 to i32
  %91 = load i32, ptr %31, align 4
  %92 = mul nsw i32 %90, %91
  %93 = add nsw i32 %83, %92
  store i32 %93, ptr %27, align 4
  %94 = load i32, ptr %27, align 4
  %95 = add nsw i32 %94, 16
  %96 = ashr i32 %95, 5
  store i32 %96, ptr %27, align 4
  br label %137

97:                                               ; preds = %53
  %98 = load i32, ptr %26, align 4
  %99 = add nsw i32 %98, 1
  store i32 %99, ptr %29, align 4
  %100 = load i32, ptr %25, align 4
  %101 = shl i32 %100, 6
  %102 = load i32, ptr %29, align 4
  %103 = load i32, ptr %20, align 4
  %104 = mul nsw i32 %102, %103
  %105 = sub nsw i32 %101, %104
  store i32 %105, ptr %28, align 4
  %106 = load i32, ptr %28, align 4
  %107 = load i32, ptr %24, align 4
  %108 = ashr i32 %106, %107
  store i32 %108, ptr %32, align 4
  %109 = load i32, ptr %28, align 4
  %110 = load i32, ptr %18, align 4
  %111 = shl i32 1, %110
  %112 = mul nsw i32 %109, %111
  %113 = and i32 %112, 63
  %114 = ashr i32 %113, 1
  store i32 %114, ptr %33, align 4
  %115 = load ptr, ptr %16, align 8
  %116 = load i32, ptr %32, align 4
  %117 = sext i32 %116 to i64
  %118 = getelementptr inbounds i8, ptr %115, i64 %117
  %119 = load i8, ptr %118, align 1
  %120 = zext i8 %119 to i32
  %121 = load i32, ptr %33, align 4
  %122 = sub nsw i32 32, %121
  %123 = mul nsw i32 %120, %122
  %124 = load ptr, ptr %16, align 8
  %125 = load i32, ptr %32, align 4
  %126 = add nsw i32 %125, 1
  %127 = sext i32 %126 to i64
  %128 = getelementptr inbounds i8, ptr %124, i64 %127
  %129 = load i8, ptr %128, align 1
  %130 = zext i8 %129 to i32
  %131 = load i32, ptr %33, align 4
  %132 = mul nsw i32 %130, %131
  %133 = add nsw i32 %123, %132
  store i32 %133, ptr %27, align 4
  %134 = load i32, ptr %27, align 4
  %135 = add nsw i32 %134, 16
  %136 = ashr i32 %135, 5
  store i32 %136, ptr %27, align 4
  br label %137

137:                                              ; preds = %97, %68
  %138 = load i32, ptr %27, align 4
  %139 = trunc i32 %138 to i8
  %140 = load ptr, ptr %11, align 8
  %141 = load i32, ptr %26, align 4
  %142 = sext i32 %141 to i64
  %143 = getelementptr inbounds i8, ptr %140, i64 %142
  store i8 %139, ptr %143, align 1
  br label %144

144:                                              ; preds = %137
  %145 = load i32, ptr %26, align 4
  %146 = add nsw i32 %145, 1
  store i32 %146, ptr %26, align 4
  br label %49, !llvm.loop !8

147:                                              ; preds = %49
  %148 = load i64, ptr %12, align 8
  %149 = load ptr, ptr %11, align 8
  %150 = getelementptr inbounds i8, ptr %149, i64 %148
  store ptr %150, ptr %11, align 8
  br label %151

151:                                              ; preds = %147
  %152 = load i32, ptr %25, align 4
  %153 = add nsw i32 %152, 1
  store i32 %153, ptr %25, align 4
  br label %44, !llvm.loop !9

154:                                              ; preds = %44
  ret void
}