; Function Attrs: nofree norecurse nosync nounwind memory(read, argmem: readwrite, inaccessiblemem: none) uwtable
define hidden void @av1_dr_prediction_z2_c(ptr nocapture noundef writeonly %0, i64 noundef %1, i32 noundef %2, i32 noundef %3, ptr nocapture noundef readonly %4, ptr nocapture noundef readonly %5, i32 noundef %6, i32 noundef %7, i32 noundef %8, i32 noundef %9) local_unnamed_addr #2 {
  %.neg53 = shl nsw i32 -1, %6
  %11 = sub nsw i32 6, %6
  %12 = sub nsw i32 6, %7
  %13 = icmp sgt i32 %3, 0
  %14 = icmp sgt i32 %2, 0
  %or.cond = and i1 %13, %14
  br i1 %or.cond, label %.preheader.us.preheader, label %._crit_edge57

.preheader.us.preheader:                          ; preds = %10
  %wide.trip.count = zext nneg i32 %2 to i64
  br label %.preheader.us

.preheader.us:                                    ; preds = %.preheader.us.preheader, %._crit_edge.us
  %.056.us = phi ptr [ %51, %._crit_edge.us ], [ %0, %.preheader.us.preheader ]
  %.04655.us = phi i32 [ %52, %._crit_edge.us ], [ 0, %.preheader.us.preheader ]
  %.neg.us = xor i32 %.04655.us, -1
  %.neg50.us = mul i32 %8, %.neg.us
  %15 = shl i32 %.neg50.us, %6
  %16 = lshr i32 %15, 1
  %17 = and i32 %16, 31
  %18 = sub nuw nsw i32 32, %17
  %19 = shl i32 %.04655.us, 6
  br label %20

20:                                               ; preds = %.preheader.us, %43
  %indvars.iv = phi i64 [ 0, %.preheader.us ], [ %indvars.iv.next, %43 ]
  %21 = trunc nuw nsw i64 %indvars.iv to i32
  %22 = shl i32 %21, 6
  %23 = add i32 %22, %.neg50.us
  %24 = ashr i32 %23, %11
  %.not.us = icmp slt i32 %24, %.neg53
  br i1 %.not.us, label %31, label %25

25:                                               ; preds = %20
  %26 = sext i32 %24 to i64
  %27 = getelementptr inbounds i8, ptr %4, i64 %26
  %28 = load i8, ptr %27, align 1
  %29 = zext i8 %28 to i32
  %30 = mul nuw nsw i32 %18, %29
  br label %43

31:                                               ; preds = %20
  %.neg51.us = xor i32 %21, -1
  %.neg52.us = mul i32 %9, %.neg51.us
  %32 = add i32 %.neg52.us, %19
  %33 = ashr i32 %32, %12
  %34 = shl i32 %.neg52.us, %7
  %35 = lshr i32 %34, 1
  %36 = and i32 %35, 31
  %37 = sext i32 %33 to i64
  %38 = getelementptr inbounds i8, ptr %5, i64 %37
  %39 = load i8, ptr %38, align 1
  %40 = zext i8 %39 to i32
  %41 = sub nuw nsw i32 32, %36
  %42 = mul nuw nsw i32 %41, %40
  br label %43

43:                                               ; preds = %31, %25
  %.sink = phi ptr [ %38, %31 ], [ %27, %25 ]
  %.sink63 = phi i32 [ %36, %31 ], [ %17, %25 ]
  %.sink62 = phi i32 [ %42, %31 ], [ %30, %25 ]
  %44 = getelementptr i8, ptr %.sink, i64 1
  %45 = load i8, ptr %44, align 1
  %46 = zext i8 %45 to i32
  %47 = mul nuw nsw i32 %.sink63, %46
  %48 = add nuw nsw i32 %47, %.sink62
  %.048.in.us = add nuw nsw i32 %48, 16
  %.048.us = lshr i32 %.048.in.us, 5
  %49 = trunc i32 %.048.us to i8
  %50 = getelementptr inbounds i8, ptr %.056.us, i64 %indvars.iv
  store i8 %49, ptr %50, align 1
  %indvars.iv.next = add nuw nsw i64 %indvars.iv, 1
  %exitcond.not = icmp eq i64 %indvars.iv.next, %wide.trip.count
  br i1 %exitcond.not, label %._crit_edge.us, label %20, !llvm.loop !8

._crit_edge.us:                                   ; preds = %43
  %51 = getelementptr inbounds i8, ptr %.056.us, i64 %1
  %52 = add nuw nsw i32 %.04655.us, 1
  %exitcond61.not = icmp eq i32 %52, %3
  br i1 %exitcond61.not, label %._crit_edge57, label %.preheader.us, !llvm.loop !9

._crit_edge57:                                    ; preds = %._crit_edge.us, %10
  ret void
}